target datalayout = "e-m:e-p270:32:32-p271:32:32-p272:64:64-i64:64-i128:128-f80:128-n8:16:32:64-S128"
target triple = "x86_64-pc-linux-gnu"

; Function Attrs: nounwind uwtable
define internal i32 @getFoldedValue(ptr noundef %0, i32 noundef %1, i32 noundef %2) #0 {
  %4 = alloca i32, align 4
  %5 = alloca ptr, align 8
  %6 = alloca i32, align 4
  %7 = alloca i32, align 4
  %8 = alloca i32, align 4
  %9 = alloca i32, align 4
  %10 = alloca i8, align 1
  %11 = alloca i32, align 4
  store ptr %0, ptr %5, align 8, !tbaa !12
  store i32 %1, ptr %6, align 4, !tbaa !10
  store i32 %2, ptr %7, align 4, !tbaa !10
  call void @llvm.lifetime.start.p0(i64 4, ptr %8) #9
  call void @llvm.lifetime.start.p0(i64 4, ptr %9) #9
  store i32 0, ptr %9, align 4, !tbaa !10
  call void @llvm.lifetime.start.p0(i64 1, ptr %10) #9
  %12 = load i32, ptr %6, align 4, !tbaa !10
  %13 = add nsw i32 %12, 1024
  store i32 %13, ptr %9, align 4, !tbaa !10
  br label %14

14:                                               ; preds = %36, %3
  %15 = load i32, ptr %6, align 4, !tbaa !10
  %16 = load i32, ptr %9, align 4, !tbaa !10
  %17 = icmp slt i32 %15, %16
  br i1 %17, label %18, label %37

18:                                               ; preds = %14
  %19 = load ptr, ptr %5, align 8, !tbaa !12
  %20 = load i32, ptr %6, align 4, !tbaa !10
  %21 = call i32 @utrie_get32_77(ptr noundef %19, i32 noundef %20, ptr noundef %10)
  store i32 %21, ptr %8, align 4, !tbaa !10
  %22 = load i8, ptr %10, align 1, !tbaa !9
  %23 = icmp ne i8 %22, 0
  br i1 %23, label %24, label %27

24:                                               ; preds = %18
  %25 = load i32, ptr %6, align 4, !tbaa !10
  %26 = add nsw i32 %25, 32
  store i32 %26, ptr %6, align 4, !tbaa !10
  br label %36

27:                                               ; preds = %18
  %28 = load i32, ptr %8, align 4, !tbaa !10
  %29 = icmp ne i32 %28, 0
  br i1 %29, label %30, label %32

30:                                               ; preds = %27
  %31 = load i32, ptr %7, align 4, !tbaa !10
  store i32 %31, ptr %4, align 4
  store i32 1, ptr %11, align 4
  br label %38

32:                                               ; preds = %27
  %33 = load i32, ptr %6, align 4, !tbaa !10
  %34 = add nsw i32 %33, 1
  store i32 %34, ptr %6, align 4, !tbaa !10
  br label %35

35:                                               ; preds = %32
  br label %36

36:                                               ; preds = %35, %24
  br label %14, !llvm.loop !40

37:                                               ; preds = %14
  store i32 0, ptr %4, align 4
  store i32 1, ptr %11, align 4
  br label %38

38:                                               ; preds = %37, %30
  call void @llvm.lifetime.end.p0(i64 1, ptr %10) #9
  call void @llvm.lifetime.end.p0(i64 4, ptr %9) #9
  call void @llvm.lifetime.end.p0(i64 4, ptr %8) #9
  %39 = load i32, ptr %4, align 4
  ret i32 %39
}