; Function Attrs: nounwind uwtable
define internal noundef i32 @getFoldedValue(ptr noundef %0, i32 noundef %1, i32 noundef %2) #0 {
  %4 = alloca i8, align 1
  call void @llvm.lifetime.start.p0(i64 1, ptr nonnull %4) #13
  %5 = add nsw i32 %1, 1024
  br label %6

6:                                                ; preds = %3, %10
  %.0911 = phi i32 [ %1, %3 ], [ %11, %10 ]
  %7 = call i32 @utrie_get32_77(ptr noundef %0, i32 noundef %.0911, ptr noundef nonnull %4) #13
  %8 = load i8, ptr %4, align 1, !tbaa !4
  %.not = icmp eq i8 %8, 0
  br i1 %.not, label %9, label %10

9:                                                ; preds = %6
  %.not10 = icmp eq i32 %7, 0
  br i1 %.not10, label %10, label %13

10:                                               ; preds = %9, %6
  %.sink = phi i32 [ 32, %6 ], [ 1, %9 ]
  %11 = add nsw i32 %.0911, %.sink
  %12 = icmp slt i32 %11, %5
  br i1 %12, label %6, label %13, !llvm.loop !29

13:                                               ; preds = %10, %9
  %.0 = phi i32 [ %2, %9 ], [ 0, %10 ]
  call void @llvm.lifetime.end.p0(i64 1, ptr nonnull %4) #13
  ret i32 %.0
}